; Function Attrs: nounwind uwtable
define internal fastcc void @PrintOutput(ptr noundef %0, ptr noundef %1, double noundef %2) unnamed_addr #0 {
  %4 = alloca i64, align 8
  %5 = alloca i32, align 4
  %6 = alloca double, align 8
  call void @llvm.lifetime.start.p0(i64 8, ptr nonnull %4) #10
  call void @llvm.lifetime.start.p0(i64 4, ptr nonnull %5) #10
  call void @llvm.lifetime.start.p0(i64 8, ptr nonnull %6) #10
  %7 = tail call ptr @N_VGetArrayPointer(ptr noundef %1) #10
  %8 = call i32 @CVodeGetNumSteps(ptr noundef %0, ptr noundef nonnull %4) #10
  %9 = icmp slt i32 %8, 0
  br i1 %9, label %10, label %check_retval.exit

10:                                               ; preds = %3
  %11 = load ptr, ptr @stderr, align 8, !tbaa !9
  %12 = call i32 (ptr, ptr, ...) @fprintf(ptr noundef %11, ptr noundef nonnull @.str.60, ptr noundef nonnull @.str.31, i32 noundef %8) #11
  br label %check_retval.exit

check_retval.exit:                                ; preds = %3, %10
  %13 = call i32 @CVodeGetLastOrder(ptr noundef %0, ptr noundef nonnull %5) #10
  %14 = icmp slt i32 %13, 0
  br i1 %14, label %15, label %check_retval.exit19

15:                                               ; preds = %check_retval.exit
  %16 = load ptr, ptr @stderr, align 8, !tbaa !9
  %17 = call i32 (ptr, ptr, ...) @fprintf(ptr noundef %16, ptr noundef nonnull @.str.60, ptr noundef nonnull @.str.32, i32 noundef %13) #11
  br label %check_retval.exit19

check_retval.exit19:                              ; preds = %check_retval.exit, %15
  %18 = call i32 @CVodeGetLastStep(ptr noundef %0, ptr noundef nonnull %6) #10
  %19 = icmp slt i32 %18, 0
  br i1 %19, label %20, label %check_retval.exit21

20:                                               ; preds = %check_retval.exit19
  %21 = load ptr, ptr @stderr, align 8, !tbaa !9
  %22 = call i32 (ptr, ptr, ...) @fprintf(ptr noundef %21, ptr noundef nonnull @.str.60, ptr noundef nonnull @.str.33, i32 noundef %18) #11
  br label %check_retval.exit21

check_retval.exit21:                              ; preds = %check_retval.exit19, %20
  %23 = load i64, ptr %4, align 8, !tbaa !34
  %24 = load i32, ptr %5, align 4, !tbaa !29
  %25 = load double, ptr %6, align 8, !tbaa !24
  %26 = call i32 (ptr, ...) @printf(ptr noundef nonnull dereferenceable(1) @.str.34, double noundef %2, i64 noundef %23, i32 noundef %24, double noundef %25)
  %27 = load double, ptr %7, align 8, !tbaa !24
  %28 = getelementptr inbounds nuw i8, ptr %7, i64 704
  %29 = load double, ptr %28, align 8, !tbaa !24
  %30 = getelementptr inbounds nuw i8, ptr %7, i64 1584
  %31 = load double, ptr %30, align 8, !tbaa !24
  %32 = call i32 (ptr, ...) @printf(ptr noundef nonnull dereferenceable(1) @.str.35, double noundef %27, double noundef %29, double noundef %31)
  %33 = getelementptr inbounds nuw i8, ptr %7, i64 8
  %34 = load double, ptr %33, align 8, !tbaa !24
  %35 = getelementptr inbounds nuw i8, ptr %7, i64 712
  %36 = load double, ptr %35, align 8, !tbaa !24
  %37 = getelementptr inbounds nuw i8, ptr %7, i64 1592
  %38 = load double, ptr %37, align 8, !tbaa !24
  %39 = call i32 (ptr, ...) @printf(ptr noundef nonnull dereferenceable(1) @.str.36, double noundef %34, double noundef %36, double noundef %38)
  call void @llvm.lifetime.end.p0(i64 8, ptr nonnull %6) #10
  call void @llvm.lifetime.end.p0(i64 4, ptr nonnull %5) #10
  call void @llvm.lifetime.end.p0(i64 8, ptr nonnull %4) #10
  ret void
}